target datalayout = "e-m:e-p270:32:32-p271:32:32-p272:64:64-i64:64-i128:128-f80:128-n8:16:32:64-S128"
target triple = "x86_64-pc-linux-gnu"

%struct._generic_N_Vector = type { ptr, ptr, ptr }
%struct._N_VectorContent_Serial = type { i64, i32, ptr }

@stderr = external global ptr, align 8
@.str.25 = private unnamed_addr constant [47 x i8] c"\0ASUNDIALS_ERROR: check_ans failed - ewt <= 0\0A\0A\00", align 1
@stdout = external global ptr, align 8
@.str.26 = private unnamed_addr constant [40 x i8] c"\0ASUNDIALS_WARNING: check_ans error=%g\0A\0A\00", align 1

; Function Attrs: nounwind uwtable
define internal i32 @check_ans(ptr noundef %0, double noundef %1, double noundef %2) #0 {
  %4 = alloca i32, align 4
  %5 = alloca ptr, align 8
  %6 = alloca double, align 8
  %7 = alloca double, align 8
  %8 = alloca i32, align 4
  %9 = alloca ptr, align 8
  %10 = alloca ptr, align 8
  %11 = alloca double, align 8
  %12 = alloca i32, align 4
  store ptr %0, ptr %5, align 8, !tbaa !8
  store double %1, ptr %6, align 8, !tbaa !4
  store double %2, ptr %7, align 8, !tbaa !4
  call void @llvm.lifetime.start.p0(i64 4, ptr %8) #5
  store i32 0, ptr %8, align 4, !tbaa !12
  call void @llvm.lifetime.start.p0(i64 8, ptr %9) #5
  call void @llvm.lifetime.start.p0(i64 8, ptr %10) #5
  call void @llvm.lifetime.start.p0(i64 8, ptr %11) #5
  %13 = load ptr, ptr %5, align 8, !tbaa !8
  %14 = call ptr @N_VClone(ptr noundef %13)
  store ptr %14, ptr %9, align 8, !tbaa !8
  %15 = load ptr, ptr %5, align 8, !tbaa !8
  %16 = call ptr @N_VClone(ptr noundef %15)
  store ptr %16, ptr %10, align 8, !tbaa !8
  %17 = load ptr, ptr %9, align 8, !tbaa !8
  %18 = getelementptr inbounds nuw %struct._generic_N_Vector, ptr %17, i32 0, i32 0
  %19 = load ptr, ptr %18, align 8, !tbaa !16
  %20 = getelementptr inbounds nuw %struct._N_VectorContent_Serial, ptr %19, i32 0, i32 2
  %21 = load ptr, ptr %20, align 8, !tbaa !19
  %22 = getelementptr inbounds double, ptr %21, i64 0
  store double 0x3FEFE5AA778C1B68, ptr %22, align 8, !tbaa !4
  %23 = load ptr, ptr %9, align 8, !tbaa !8
  %24 = getelementptr inbounds nuw %struct._generic_N_Vector, ptr %23, i32 0, i32 0
  %25 = load ptr, ptr %24, align 8, !tbaa !16
  %26 = getelementptr inbounds nuw %struct._N_VectorContent_Serial, ptr %25, i32 0, i32 2
  %27 = load ptr, ptr %26, align 8, !tbaa !19
  %28 = getelementptr inbounds double, ptr %27, i64 1
  store double 0x3F6830E713781B22, ptr %28, align 8, !tbaa !4
  %29 = load ptr, ptr %9, align 8, !tbaa !8
  %30 = getelementptr inbounds nuw %struct._generic_N_Vector, ptr %29, i32 0, i32 0
  %31 = load ptr, ptr %30, align 8, !tbaa !16
  %32 = getelementptr inbounds nuw %struct._N_VectorContent_Serial, ptr %31, i32 0, i32 2
  %33 = load ptr, ptr %32, align 8, !tbaa !19
  %34 = getelementptr inbounds double, ptr %33, i64 2
  store double 0x3F31250B0363ECAB, ptr %34, align 8, !tbaa !4
  %35 = load ptr, ptr %9, align 8, !tbaa !8
  %36 = load ptr, ptr %10, align 8, !tbaa !8
  call void @N_VAbs(ptr noundef %35, ptr noundef %36)
  %37 = load double, ptr %6, align 8, !tbaa !4
  %38 = load ptr, ptr %10, align 8, !tbaa !8
  %39 = load ptr, ptr %10, align 8, !tbaa !8
  call void @N_VScale(double noundef %37, ptr noundef %38, ptr noundef %39)
  %40 = load ptr, ptr %10, align 8, !tbaa !8
  %41 = load double, ptr %7, align 8, !tbaa !4
  %42 = load ptr, ptr %10, align 8, !tbaa !8
  call void @N_VAddConst(ptr noundef %40, double noundef %41, ptr noundef %42)
  %43 = load ptr, ptr %10, align 8, !tbaa !8
  %44 = call double @N_VMin(ptr noundef %43)
  %45 = fcmp ole double %44, 0.000000e+00
  br i1 %45, label %46, label %49

46:                                               ; preds = %3
  %47 = load ptr, ptr @stderr, align 8, !tbaa !25
  %48 = call i32 (ptr, ptr, ...) @fprintf(ptr noundef %47, ptr noundef @.str.25) #5
  store i32 -1, ptr %4, align 4
  store i32 1, ptr %12, align 4
  br label %71

49:                                               ; preds = %3
  %50 = load ptr, ptr %10, align 8, !tbaa !8
  %51 = load ptr, ptr %10, align 8, !tbaa !8
  call void @N_VInv(ptr noundef %50, ptr noundef %51)
  %52 = load ptr, ptr %5, align 8, !tbaa !8
  %53 = load ptr, ptr %9, align 8, !tbaa !8
  %54 = load ptr, ptr %9, align 8, !tbaa !8
  call void @N_VLinearSum(double noundef 1.000000e+00, ptr noundef %52, double noundef -1.000000e+00, ptr noundef %53, ptr noundef %54)
  %55 = load ptr, ptr %9, align 8, !tbaa !8
  %56 = load ptr, ptr %10, align 8, !tbaa !8
  %57 = call double @N_VWrmsNorm(ptr noundef %55, ptr noundef %56)
  store double %57, ptr %11, align 8, !tbaa !4
  %58 = load double, ptr %11, align 8, !tbaa !4
  %59 = fcmp olt double %58, 1.000000e+00
  %60 = select i1 %59, i32 0, i32 1
  store i32 %60, ptr %8, align 4, !tbaa !12
  %61 = load i32, ptr %8, align 4, !tbaa !12
  %62 = icmp ne i32 %61, 0
  br i1 %62, label %63, label %67

63:                                               ; preds = %49
  %64 = load ptr, ptr @stdout, align 8, !tbaa !25
  %65 = load double, ptr %11, align 8, !tbaa !4
  %66 = call i32 (ptr, ptr, ...) @fprintf(ptr noundef %64, ptr noundef @.str.26, double noundef %65) #5
  br label %67

67:                                               ; preds = %63, %49
  %68 = load ptr, ptr %9, align 8, !tbaa !8
  call void @N_VDestroy(ptr noundef %68)
  %69 = load ptr, ptr %10, align 8, !tbaa !8
  call void @N_VDestroy(ptr noundef %69)
  %70 = load i32, ptr %8, align 4, !tbaa !12
  store i32 %70, ptr %4, align 4
  store i32 1, ptr %12, align 4
  br label %71

71:                                               ; preds = %67, %46
  call void @llvm.lifetime.end.p0(i64 8, ptr %11) #5
  call void @llvm.lifetime.end.p0(i64 8, ptr %10) #5
  call void @llvm.lifetime.end.p0(i64 8, ptr %9) #5
  call void @llvm.lifetime.end.p0(i64 4, ptr %8) #5
  %72 = load i32, ptr %4, align 4
  ret i32 %72
}